target datalayout = "e-m:e-p270:32:32-p271:32:32-p272:64:64-i64:64-i128:128-f80:128-n8:16:32:64-S128"
target triple = "x86_64-unknown-linux-gnu"

%"struct.std::_Vector_base" = type { %"struct.std::_Vector_base<proxygen::HPACKHeader, std::allocator<proxygen::HPACKHeader>>::_Vector_impl" }
%"struct.std::_Vector_base<proxygen::HPACKHeader, std::allocator<proxygen::HPACKHeader>>::_Vector_impl" = type { %"struct.std::_Vector_base<proxygen::HPACKHeader, std::allocator<proxygen::HPACKHeader>>::_Vector_impl_data" }
%"struct.std::_Vector_base<proxygen::HPACKHeader, std::allocator<proxygen::HPACKHeader>>::_Vector_impl_data" = type { ptr, ptr, ptr }
%"class.proxygen::HPACKCodec" = type { %"class.proxygen::HeaderCodec", %"class.proxygen::HPACKEncoder", %"class.proxygen::HPACKDecoder", %"class.std::vector" }
%"class.proxygen::HeaderCodec" = type { ptr, %"struct.proxygen::HTTPHeaderSize", i32, i64, ptr }
%"struct.proxygen::HTTPHeaderSize" = type { i32, i32, i32 }
%"class.proxygen::HPACKEncoder" = type { %"class.proxygen::HPACKEncoderBase.base", [7 x i8], %"class.proxygen::HPACKContext.base", [4 x i8] }
%"class.proxygen::HPACKEncoderBase.base" = type <{ ptr, %"class.proxygen::HPACKEncodeBuffer", i8 }>
%"class.proxygen::HPACKEncodeBuffer" = type <{ %"class.folly::IOBufQueue", ptr, %"class.folly::io::QueueAppender", i32, i32, i32, [4 x i8] }>
%"class.folly::IOBufQueue" = type { %"struct.folly::IOBufQueue::Options", i64, %"class.std::unique_ptr", ptr, ptr, %"struct.folly::IOBufQueue::WritableRangeCacheData", ptr }
%"struct.folly::IOBufQueue::Options" = type { i8 }
%"class.std::unique_ptr" = type { %"struct.std::__uniq_ptr_data" }
%"struct.std::__uniq_ptr_data" = type { %"class.std::__uniq_ptr_impl" }
%"class.std::__uniq_ptr_impl" = type { %"class.std::tuple" }
%"class.std::tuple" = type { %"struct.std::_Tuple_impl" }
%"struct.std::_Tuple_impl" = type { %"struct.std::_Head_base.10" }
%"struct.std::_Head_base.10" = type { ptr }
%"struct.folly::IOBufQueue::WritableRangeCacheData" = type <{ %"struct.std::pair", i8, [7 x i8] }>
%"struct.std::pair" = type { ptr, ptr }
%"class.folly::io::QueueAppender" = type { %"class.folly::IOBufQueue::WritableRangeCache", i64 }
%"class.folly::IOBufQueue::WritableRangeCache" = type { %"struct.folly::IOBufQueue::WritableRangeCacheData", ptr }
%"class.proxygen::HPACKContext.base" = type <{ %"class.proxygen::HeaderTable", i32 }>
%"class.proxygen::HeaderTable" = type { ptr, i32, i32, %"class.std::vector", i32, i32, i32, i8, %"class.folly::F14FastMap" }
%"class.folly::F14FastMap" = type { %"class.folly::f14::detail::F14VectorMapImpl" }
%"class.folly::f14::detail::F14VectorMapImpl" = type { %"class.folly::f14::detail::F14BasicMap" }
%"class.folly::f14::detail::F14BasicMap" = type { %"class.folly::f14::detail::F14Table" }
%"class.folly::f14::detail::F14Table" = type { %"class.folly::f14::detail::VectorContainerPolicy", ptr, %"struct.folly::f14::detail::SizeAndChunkShiftAndPackedBegin" }
%"class.folly::f14::detail::VectorContainerPolicy" = type { ptr }
%"struct.folly::f14::detail::SizeAndChunkShiftAndPackedBegin" = type { %"struct.folly::f14::detail::PackedSizeAndChunkShift" }
%"struct.folly::f14::detail::PackedSizeAndChunkShift" = type { i64 }
%"class.proxygen::HPACKDecoder" = type <{ %"class.proxygen::HPACKDecoderBase", %"class.proxygen::HPACKContext.base", [4 x i8] }>
%"class.proxygen::HPACKDecoderBase" = type { i8, i32, i64 }
%"class.std::vector" = type { %"struct.std::_Vector_base" }
%"class.proxygen::HPACK::StreamingCallback" = type { ptr, ptr }

; Function Attrs: mustprogress nounwind uwtable
define void @_ZN8proxygen10HPACKCodec15decodeStreamingERN5folly2io6CursorEjPNS_5HPACK17StreamingCallbackE(ptr noundef nonnull align 8 dereferenceable(408) %this, ptr noundef nonnull align 8 dereferenceable(56) %cursor, i32 noundef %length, ptr noundef %streamingCb) #5 align 2 personality ptr @__gxx_personality_v0 {
entry:
  %this.addr = alloca ptr, align 8
  %cursor.addr = alloca ptr, align 8
  %length.addr = alloca i32, align 4
  %streamingCb.addr = alloca ptr, align 8
  store ptr %this, ptr %this.addr, align 8
  store ptr %cursor, ptr %cursor.addr, align 8
  store i32 %length, ptr %length.addr, align 4
  store ptr %streamingCb, ptr %streamingCb.addr, align 8
  %this1 = load ptr, ptr %this.addr, align 8
  %stats_ = getelementptr inbounds %"class.proxygen::HeaderCodec", ptr %this1, i32 0, i32 4
  %0 = load ptr, ptr %stats_, align 8
  %1 = load ptr, ptr %streamingCb.addr, align 8
  %stats = getelementptr inbounds %"class.proxygen::HPACK::StreamingCallback", ptr %1, i32 0, i32 1
  store ptr %0, ptr %stats, align 8
  %decoder_ = getelementptr inbounds %"class.proxygen::HPACKCodec", ptr %this1, i32 0, i32 2
  %2 = load ptr, ptr %cursor.addr, align 8
  %3 = load i32, ptr %length.addr, align 4
  %4 = load ptr, ptr %streamingCb.addr, align 8
  invoke void @_ZN8proxygen12HPACKDecoder15decodeStreamingERN5folly2io6CursorEjPNS_5HPACK17StreamingCallbackE(ptr noundef nonnull align 8 dereferenceable(100) %decoder_, ptr noundef nonnull align 8 dereferenceable(56) %2, i32 noundef %3, ptr noundef %4)
          to label %invoke.cont unwind label %terminate.lpad

invoke.cont:                                      ; preds = %entry
  ret void

terminate.lpad:                                   ; preds = %entry
  %5 = landingpad { ptr, i32 }
          catch ptr null
  %6 = extractvalue { ptr, i32 } %5, 0
  call void @__clang_call_terminate(ptr %6) #23
  unreachable
}