; Function Attrs: mustprogress nounwind uwtable
define void @_ZN8proxygen10HPACKCodec15decodeStreamingERN5folly2io6CursorEjPNS_5HPACK17StreamingCallbackE(ptr noundef nonnull align 8 dereferenceable(408) %this, ptr noundef nonnull align 8 dereferenceable(56) %cursor, i32 noundef %length, ptr noundef %streamingCb) local_unnamed_addr #4 align 2 personality ptr @__gxx_personality_v0 {
entry:
  %stats_ = getelementptr inbounds i8, ptr %this, i64 32
  %0 = load ptr, ptr %stats_, align 8
  %stats = getelementptr inbounds i8, ptr %streamingCb, i64 8
  store ptr %0, ptr %stats, align 8
  %decoder_ = getelementptr inbounds i8, ptr %this, i64 280
  invoke void @_ZN8proxygen12HPACKDecoder15decodeStreamingERN5folly2io6CursorEjPNS_5HPACK17StreamingCallbackE(ptr noundef nonnull align 8 dereferenceable(100) %decoder_, ptr noundef nonnull align 8 dereferenceable(56) %cursor, i32 noundef %length, ptr noundef nonnull %streamingCb)
          to label %invoke.cont unwind label %terminate.lpad

invoke.cont:                                      ; preds = %entry
  ret void

terminate.lpad:                                   ; preds = %entry
  %1 = landingpad { ptr, i32 }
          catch ptr null
  %2 = extractvalue { ptr, i32 } %1, 0
  tail call void @__clang_call_terminate(ptr %2) #30
  unreachable
}